; Function Attrs: nounwind uwtable
define zeroext range(i8 0, 2) i8 @l_Array_anyMUnsafe_any___at___private_Lean_Meta_FunInfo_0__Lean_Meta_collectDeps_visit___spec__4(ptr noundef %0, ptr noundef readonly captures(none) %1, i64 noundef %2, i64 noundef %3) local_unnamed_addr #1 {
  %.not35 = icmp eq i64 %2, %3
  br i1 %.not35, label %lean_dec.exit._crit_edge, label %.lr.ph

.lr.ph:                                           ; preds = %4
  %5 = getelementptr inbounds nuw i8, ptr %1, i64 24
  %6 = ptrtoint ptr %0 to i64
  %7 = and i64 %6, 1
  %.not31 = icmp eq i64 %7, 0
  br i1 %.not31, label %.lr.ph.split.us, label %.lr.ph.split, !prof !14

.lr.ph.split.us:                                  ; preds = %.lr.ph, %12
  %.01536.us = phi i64 [ %13, %12 ], [ %2, %.lr.ph ]
  %8 = getelementptr inbounds nuw [0 x ptr], ptr %5, i64 0, i64 %.01536.us
  %9 = load ptr, ptr %8, align 8, !tbaa !9
  %10 = ptrtoint ptr %9 to i64
  %11 = and i64 %10, 1
  %.not.i20.us = icmp eq i64 %11, 0
  br i1 %.not.i20.us, label %15, label %lean_array_uget.exit.thread.us

12:                                               ; preds = %25, %26, %lean_array_uget.exit.thread.us, %lean_dec.exit.us
  %13 = add i64 %.01536.us, 1
  %.not.us = icmp eq i64 %13, %3
  br i1 %.not.us, label %lean_dec.exit._crit_edge, label %.lr.ph.split.us

lean_array_uget.exit.thread.us:                   ; preds = %.lr.ph.split.us
  %14 = tail call zeroext i1 @lean_nat_big_eq(ptr noundef %0, ptr noundef %9) #5
  br i1 %14, label %lean_dec.exit._crit_edge, label %12

15:                                               ; preds = %.lr.ph.split.us
  %.val.i.i.us = load i32, ptr %9, align 4, !tbaa !4
  %16 = icmp sgt i32 %.val.i.i.us, 0
  br i1 %16, label %19, label %17, !prof !11

17:                                               ; preds = %15
  %.not.i.i.us = icmp eq i32 %.val.i.i.us, 0
  br i1 %.not.i.i.us, label %lean_array_uget.exit.us, label %18

18:                                               ; preds = %17
  tail call void @lean_inc_ref_cold(ptr noundef nonnull %9) #5
  br label %lean_array_uget.exit.us

19:                                               ; preds = %15
  %20 = add nuw i32 %.val.i.i.us, 1
  store i32 %20, ptr %9, align 4, !tbaa !4
  br label %lean_array_uget.exit.us

lean_array_uget.exit.us:                          ; preds = %19, %18, %17
  %21 = tail call zeroext i1 @lean_nat_big_eq(ptr noundef %0, ptr noundef nonnull %9) #5
  %22 = load i32, ptr %9, align 4, !tbaa !4
  %23 = icmp sgt i32 %22, 1
  br i1 %23, label %26, label %24, !prof !11

24:                                               ; preds = %lean_array_uget.exit.us
  %.not.i.us = icmp eq i32 %22, 0
  br i1 %.not.i.us, label %lean_dec.exit.us, label %25

25:                                               ; preds = %24
  tail call void @lean_dec_ref_cold(ptr noundef nonnull %9) #5
  br i1 %21, label %lean_dec.exit._crit_edge, label %12

26:                                               ; preds = %lean_array_uget.exit.us
  %27 = add nsw i32 %22, -1
  store i32 %27, ptr %9, align 4, !tbaa !4
  br i1 %21, label %lean_dec.exit._crit_edge, label %12

lean_dec.exit.us:                                 ; preds = %24
  br i1 %21, label %lean_dec.exit._crit_edge, label %12

28:                                               ; preds = %47, %44, %lean_array_uget.exit.thread, %lean_dec.exit
  %29 = add i64 %.01536, 1
  %.not = icmp eq i64 %29, %3
  br i1 %.not, label %lean_dec.exit._crit_edge, label %.lr.ph.split

.lr.ph.split:                                     ; preds = %.lr.ph, %28
  %.01536 = phi i64 [ %29, %28 ], [ %2, %.lr.ph ]
  %30 = getelementptr inbounds nuw [0 x ptr], ptr %5, i64 0, i64 %.01536
  %31 = load ptr, ptr %30, align 8, !tbaa !9
  %32 = ptrtoint ptr %31 to i64
  %33 = and i64 %32, 1
  %.not.i20 = icmp eq i64 %33, 0
  br i1 %.not.i20, label %34, label %lean_array_uget.exit.thread

34:                                               ; preds = %.lr.ph.split
  %.val.i.i = load i32, ptr %31, align 4, !tbaa !4
  %35 = icmp sgt i32 %.val.i.i, 0
  br i1 %35, label %36, label %38, !prof !11

36:                                               ; preds = %34
  %37 = add nuw i32 %.val.i.i, 1
  store i32 %37, ptr %31, align 4, !tbaa !4
  br label %lean_array_uget.exit

38:                                               ; preds = %34
  %.not.i.i = icmp eq i32 %.val.i.i, 0
  br i1 %.not.i.i, label %lean_array_uget.exit, label %39

39:                                               ; preds = %38
  tail call void @lean_inc_ref_cold(ptr noundef nonnull %31) #5
  br label %lean_array_uget.exit

lean_array_uget.exit:                             ; preds = %36, %38, %39
  %40 = tail call zeroext i1 @lean_nat_big_eq(ptr noundef %0, ptr noundef nonnull %31) #5
  %41 = load i32, ptr %31, align 4, !tbaa !4
  %42 = icmp sgt i32 %41, 1
  br i1 %42, label %44, label %46, !prof !11

lean_array_uget.exit.thread:                      ; preds = %.lr.ph.split
  %43 = icmp eq ptr %0, %31
  br i1 %43, label %lean_dec.exit._crit_edge, label %28

44:                                               ; preds = %lean_array_uget.exit
  %45 = add nsw i32 %41, -1
  store i32 %45, ptr %31, align 4, !tbaa !4
  br i1 %40, label %lean_dec.exit._crit_edge, label %28

46:                                               ; preds = %lean_array_uget.exit
  %.not.i = icmp eq i32 %41, 0
  br i1 %.not.i, label %lean_dec.exit, label %47

47:                                               ; preds = %46
  tail call void @lean_dec_ref_cold(ptr noundef nonnull %31) #5
  br i1 %40, label %lean_dec.exit._crit_edge, label %28

lean_dec.exit:                                    ; preds = %46
  br i1 %40, label %lean_dec.exit._crit_edge, label %28

lean_dec.exit._crit_edge:                         ; preds = %28, %lean_dec.exit, %lean_array_uget.exit.thread, %44, %47, %12, %lean_dec.exit.us, %lean_array_uget.exit.thread.us, %26, %25, %4
  %.2.ph = phi i8 [ 0, %4 ], [ 1, %25 ], [ 1, %26 ], [ 1, %lean_array_uget.exit.thread.us ], [ 1, %lean_dec.exit.us ], [ 0, %12 ], [ 1, %47 ], [ 1, %44 ], [ 1, %lean_array_uget.exit.thread ], [ 1, %lean_dec.exit ], [ 0, %28 ]
  ret i8 %.2.ph
}